; Function Attrs: mustprogress nounwind uwtable
define dso_local void @_ZN4llvm18AArch64InstPrinter11printSVCROpEPKNS_6MCInstEjRKNS_15MCSubtargetInfoERNS_11raw_ostreamE(ptr nocapture nonnull readnone align 8 %0, ptr nocapture noundef readonly %1, i32 noundef %2, ptr nocapture nonnull readnone align 8 %3, ptr noundef nonnull align 8 dereferenceable(48) %4) local_unnamed_addr #1 align 2 {
  %6 = getelementptr inbounds nuw i8, ptr %1, i64 16
  %7 = zext i32 %2 to i64
  %8 = load ptr, ptr %6, align 8
  %9 = getelementptr inbounds %"class.llvm::MCOperand", ptr %8, i64 %7, i32 1
  %10 = load i64, ptr %9, align 8
  %11 = trunc i64 %10 to i8
  %12 = tail call noundef ptr @_ZN4llvm11AArch64SVCR20lookupSVCRByEncodingEh(i8 noundef zeroext %11) #22
  %13 = load ptr, ptr %12, align 8
  %.not.i.i = icmp eq ptr %13, null
  br i1 %.not.i.i, label %_ZN4llvm11raw_ostreamlsEPKc.exit, label %_ZN4llvm9StringRefC2EPKc.exit.i

_ZN4llvm9StringRefC2EPKc.exit.i:                  ; preds = %5
  %14 = tail call noundef i64 @strlen(ptr noundef nonnull dereferenceable(1) %13) #22
  %15 = getelementptr inbounds nuw i8, ptr %4, i64 24
  %16 = load ptr, ptr %15, align 8
  %17 = getelementptr inbounds nuw i8, ptr %4, i64 32
  %18 = load ptr, ptr %17, align 8
  %19 = ptrtoint ptr %16 to i64
  %20 = ptrtoint ptr %18 to i64
  %21 = sub i64 %19, %20
  %22 = icmp ugt i64 %14, %21
  br i1 %22, label %23, label %25

23:                                               ; preds = %_ZN4llvm9StringRefC2EPKc.exit.i
  %24 = tail call noundef nonnull align 8 dereferenceable(48) ptr @_ZN4llvm11raw_ostream5writeEPKcm(ptr noundef nonnull align 8 dereferenceable(48) %4, ptr noundef nonnull %13, i64 noundef %14) #22
  br label %_ZN4llvm11raw_ostreamlsEPKc.exit

25:                                               ; preds = %_ZN4llvm9StringRefC2EPKc.exit.i
  %.not.i2.i = icmp eq i64 %14, 0
  br i1 %.not.i2.i, label %_ZN4llvm11raw_ostreamlsEPKc.exit, label %26

26:                                               ; preds = %25
  tail call void @llvm.memcpy.p0.p0.i64(ptr align 1 %18, ptr nonnull align 1 %13, i64 %14, i1 false)
  %27 = load ptr, ptr %17, align 8
  %28 = getelementptr inbounds i8, ptr %27, i64 %14
  store ptr %28, ptr %17, align 8
  br label %_ZN4llvm11raw_ostreamlsEPKc.exit

_ZN4llvm11raw_ostreamlsEPKc.exit:                 ; preds = %5, %23, %25, %26
  ret void
}